target datalayout = "e-m:e-p270:32:32-p271:32:32-p272:64:64-i64:64-i128:128-f80:128-n8:16:32:64-S128"
target triple = "x86_64-pc-linux-gnu"

%struct._tree_cfg_pres = type { ptr }
%struct._stat_node = type { ptr, i32, i32, i32, %union.anon, %union.anon.5, %union.anon.6, i32, i32, ptr, ptr, i32, double, ptr, ptr, ptr, ptr, ptr, ptr, ptr }
%union.anon = type { i64 }
%union.anon.5 = type { i32 }
%union.anon.6 = type { i32 }
%struct._stats_tree = type { ptr, ptr, double, double, double, i32, i32, ptr, ptr, ptr, ptr, %struct._stat_node }
%struct._stats_tree_cfg = type { ptr, ptr, ptr, ptr, ptr, i32, i8, ptr, ptr, ptr, i32, ptr, ptr, ptr, ptr, i32 }

; Function Attrs: mustprogress null_pointer_is_valid sspstrong uwtable
define void @_ZN15StatsTreeDialog8resetTapEPv(ptr noundef %0) #0 align 2 {
  %2 = alloca ptr, align 8
  %3 = alloca ptr, align 8
  %4 = alloca i32, align 4
  store ptr %0, ptr %2, align 8
  call void @llvm.lifetime.start.p0(i64 8, ptr %3) #20
  %5 = load ptr, ptr %2, align 8
  store ptr %5, ptr %3, align 8
  %6 = load ptr, ptr %3, align 8
  %7 = icmp ne ptr %6, null
  br i1 %7, label %8, label %29

8:                                                ; preds = %1
  %9 = load ptr, ptr %3, align 8
  %10 = getelementptr inbounds nuw %struct._stats_tree, ptr %9, i32 0, i32 0
  %11 = load ptr, ptr %10, align 8
  %12 = icmp ne ptr %11, null
  br i1 %12, label %13, label %29

13:                                               ; preds = %8
  %14 = load ptr, ptr %3, align 8
  %15 = getelementptr inbounds nuw %struct._stats_tree, ptr %14, i32 0, i32 0
  %16 = load ptr, ptr %15, align 8
  %17 = getelementptr inbounds nuw %struct._stats_tree_cfg, ptr %16, i32 0, i32 12
  %18 = load ptr, ptr %17, align 8
  %19 = icmp ne ptr %18, null
  br i1 %19, label %20, label %29

20:                                               ; preds = %13
  %21 = load ptr, ptr %3, align 8
  %22 = getelementptr inbounds nuw %struct._stats_tree, ptr %21, i32 0, i32 0
  %23 = load ptr, ptr %22, align 8
  %24 = getelementptr inbounds nuw %struct._stats_tree_cfg, ptr %23, i32 0, i32 12
  %25 = load ptr, ptr %24, align 8
  %26 = getelementptr inbounds nuw %struct._tree_cfg_pres, ptr %25, i32 0, i32 0
  %27 = load ptr, ptr %26, align 8
  %28 = icmp ne ptr %27, null
  br i1 %28, label %30, label %29

29:                                               ; preds = %20, %13, %8, %1
  store i32 1, ptr %4, align 4
  br label %45

30:                                               ; preds = %20
  %31 = load ptr, ptr %3, align 8
  %32 = getelementptr inbounds nuw %struct._stats_tree, ptr %31, i32 0, i32 0
  %33 = load ptr, ptr %32, align 8
  %34 = getelementptr inbounds nuw %struct._stats_tree_cfg, ptr %33, i32 0, i32 12
  %35 = load ptr, ptr %34, align 8
  %36 = getelementptr inbounds nuw %struct._tree_cfg_pres, ptr %35, i32 0, i32 0
  %37 = load ptr, ptr %36, align 8
  %38 = call noundef ptr @_ZN18TapParameterDialog15statsTreeWidgetEv(ptr noundef align 8 dereferenceable_or_null(232) %37)
  call void @_ZN11QTreeWidget5clearEv(ptr noundef align 8 dereferenceable_or_null(40) %38)
  %39 = load ptr, ptr %3, align 8
  %40 = getelementptr inbounds nuw %struct._stats_tree, ptr %39, i32 0, i32 0
  %41 = load ptr, ptr %40, align 8
  %42 = getelementptr inbounds nuw %struct._stats_tree_cfg, ptr %41, i32 0, i32 8
  %43 = load ptr, ptr %42, align 8
  %44 = load ptr, ptr %3, align 8
  call void %43(ptr noundef %44)
  store i32 0, ptr %4, align 4
  br label %45

45:                                               ; preds = %30, %29
  call void @llvm.lifetime.end.p0(i64 8, ptr %3) #20
  %46 = load i32, ptr %4, align 4
  switch i32 %46, label %48 [
    i32 0, label %47
    i32 1, label %47
  ]

47:                                               ; preds = %45, %45
  ret void

48:                                               ; preds = %45
  unreachable
}