; Function Attrs: mustprogress null_pointer_is_valid sspstrong uwtable
define void @_ZN15StatsTreeDialog8resetTapEPv(ptr noundef %0) #0 align 2 {
  %.not = icmp eq ptr %0, null
  br i1 %.not, label %14, label %2

2:                                                ; preds = %1
  %3 = load ptr, ptr %0, align 8
  %.not11 = icmp eq ptr %3, null
  br i1 %.not11, label %14, label %4

4:                                                ; preds = %2
  %5 = getelementptr inbounds nuw i8, ptr %3, i64 88
  %6 = load ptr, ptr %5, align 8
  %.not12 = icmp eq ptr %6, null
  br i1 %.not12, label %14, label %7

7:                                                ; preds = %4
  %8 = load ptr, ptr %6, align 8
  %.not13 = icmp eq ptr %8, null
  br i1 %.not13, label %14, label %9

9:                                                ; preds = %7
  %10 = tail call noundef ptr @_ZN18TapParameterDialog15statsTreeWidgetEv(ptr noundef nonnull align 8 dereferenceable_or_null(232) %8)
  tail call void @_ZN11QTreeWidget5clearEv(ptr noundef align 8 dereferenceable_or_null(40) %10)
  %11 = load ptr, ptr %0, align 8
  %12 = getelementptr inbounds nuw i8, ptr %11, i64 56
  %13 = load ptr, ptr %12, align 8
  tail call void %13(ptr noundef nonnull %0)
  br label %14

14:                                               ; preds = %1, %2, %4, %7, %9
  ret void
}